target datalayout = "e-m:e-p270:32:32-p271:32:32-p272:64:64-i64:64-i128:128-f80:128-n8:16:32:64-S128"
target triple = "x86_64-pc-linux-gnu"

%struct.notes_rewrite_cfg = type { ptr, ptr, i32, ptr, ptr, i32, i32 }

; Function Attrs: nounwind uwtable
define dso_local i32 @copy_note_for_rewrite(ptr noundef %0, ptr noundef %1, ptr noundef %2) #0 {
  %4 = alloca ptr, align 8
  %5 = alloca ptr, align 8
  %6 = alloca ptr, align 8
  %7 = alloca i32, align 4
  %8 = alloca i32, align 4
  store ptr %0, ptr %4, align 8, !tbaa !37
  store ptr %1, ptr %5, align 8, !tbaa !17
  store ptr %2, ptr %6, align 8, !tbaa !17
  call void @llvm.lifetime.start.p0(i64 4, ptr %7) #8
  store i32 0, ptr %7, align 4, !tbaa !33
  call void @llvm.lifetime.start.p0(i64 4, ptr %8) #8
  store i32 0, ptr %8, align 4, !tbaa !33
  br label %9

9:                                                ; preds = %39, %3
  %10 = load ptr, ptr %4, align 8, !tbaa !37
  %11 = getelementptr inbounds nuw %struct.notes_rewrite_cfg, ptr %10, i32 0, i32 0
  %12 = load ptr, ptr %11, align 8, !tbaa !51
  %13 = load i32, ptr %8, align 4, !tbaa !33
  %14 = sext i32 %13 to i64
  %15 = getelementptr inbounds ptr, ptr %12, i64 %14
  %16 = load ptr, ptr %15, align 8, !tbaa !9
  %17 = icmp ne ptr %16, null
  br i1 %17, label %18, label %42

18:                                               ; preds = %9
  %19 = load ptr, ptr %4, align 8, !tbaa !37
  %20 = getelementptr inbounds nuw %struct.notes_rewrite_cfg, ptr %19, i32 0, i32 0
  %21 = load ptr, ptr %20, align 8, !tbaa !51
  %22 = load i32, ptr %8, align 4, !tbaa !33
  %23 = sext i32 %22 to i64
  %24 = getelementptr inbounds ptr, ptr %21, i64 %23
  %25 = load ptr, ptr %24, align 8, !tbaa !9
  %26 = load ptr, ptr %5, align 8, !tbaa !17
  %27 = load ptr, ptr %6, align 8, !tbaa !17
  %28 = load ptr, ptr %4, align 8, !tbaa !37
  %29 = getelementptr inbounds nuw %struct.notes_rewrite_cfg, ptr %28, i32 0, i32 3
  %30 = load ptr, ptr %29, align 8, !tbaa !44
  %31 = call i32 @copy_note(ptr noundef %25, ptr noundef %26, ptr noundef %27, i32 noundef 1, ptr noundef %30)
  %32 = icmp ne i32 %31, 0
  br i1 %32, label %36, label %33

33:                                               ; preds = %18
  %34 = load i32, ptr %7, align 4, !tbaa !33
  %35 = icmp ne i32 %34, 0
  br label %36

36:                                               ; preds = %33, %18
  %37 = phi i1 [ true, %18 ], [ %35, %33 ]
  %38 = zext i1 %37 to i32
  store i32 %38, ptr %7, align 4, !tbaa !33
  br label %39

39:                                               ; preds = %36
  %40 = load i32, ptr %8, align 4, !tbaa !33
  %41 = add nsw i32 %40, 1
  store i32 %41, ptr %8, align 4, !tbaa !33
  br label %9, !llvm.loop !54

42:                                               ; preds = %9
  %43 = load i32, ptr %7, align 4, !tbaa !33
  call void @llvm.lifetime.end.p0(i64 4, ptr %8) #8
  call void @llvm.lifetime.end.p0(i64 4, ptr %7) #8
  ret i32 %43
}